target datalayout = "e-m:e-p270:32:32-p271:32:32-p272:64:64-i64:64-i128:128-f80:128-n8:16:32:64-S128"
target triple = "x86_64-unknown-linux-gnu"

%class.b3TypedConstraint = type { ptr, %struct.b3TypedObject, i32, %union.anon, float, i8, i8, i32, i32, i32, float, float, ptr }
%struct.b3TypedObject = type { i32 }
%union.anon = type { ptr }

; Function Attrs: mustprogress nounwind uwtable
define linkonce_odr dso_local void @_ZN13b3TypedObjectC2Ei(ptr noundef nonnull align 4 dereferenceable(4) %this, i32 noundef %objectType) unnamed_addr #1 comdat align 2 {
entry:
  %this.addr = alloca ptr, align 8
  %objectType.addr = alloca i32, align 4
  store ptr %this, ptr %this.addr, align 8
  store i32 %objectType, ptr %objectType.addr, align 4
  %this1 = load ptr, ptr %this.addr, align 8
  %m_objectType = getelementptr inbounds %struct.b3TypedObject, ptr %this1, i32 0, i32 0
  %0 = load i32, ptr %objectType.addr, align 4
  store i32 %0, ptr %m_objectType, align 4
  ret void
}

; Function Attrs: mustprogress uwtable
define dso_local void @_ZN17b3TypedConstraintC2E21b3TypedConstraintTypeii(ptr noundef nonnull align 16 dereferenceable(64) %this, i32 noundef %type, i32 noundef %rbA, i32 noundef %rbB) unnamed_addr #0 align 2 {
entry:
  %this.addr = alloca ptr, align 8
  %type.addr = alloca i32, align 4
  %rbA.addr = alloca i32, align 4
  %rbB.addr = alloca i32, align 4
  store ptr %this, ptr %this.addr, align 8
  store i32 %type, ptr %type.addr, align 4
  store i32 %rbA, ptr %rbA.addr, align 4
  store i32 %rbB, ptr %rbB.addr, align 4
  %this1 = load ptr, ptr %this.addr, align 8
  %0 = getelementptr inbounds i8, ptr %this1, i64 8
  %1 = load i32, ptr %type.addr, align 4
  call void @_ZN13b3TypedObjectC2Ei(ptr noundef nonnull align 4 dereferenceable(4) %0, i32 noundef %1)
  store ptr getelementptr inbounds ({ [10 x ptr] }, ptr @_ZTV17b3TypedConstraint, i32 0, i32 0, i32 2), ptr %this1, align 16
  %m_userConstraintType = getelementptr inbounds %class.b3TypedConstraint, ptr %this1, i32 0, i32 2
  store i32 -1, ptr %m_userConstraintType, align 4
  %2 = getelementptr inbounds %class.b3TypedConstraint, ptr %this1, i32 0, i32 3
  store ptr inttoptr (i64 -1 to ptr), ptr %2, align 16
  %m_breakingImpulseThreshold = getelementptr inbounds %class.b3TypedConstraint, ptr %this1, i32 0, i32 4
  store float 0x47EFFFFFE0000000, ptr %m_breakingImpulseThreshold, align 8
  %m_isEnabled = getelementptr inbounds %class.b3TypedConstraint, ptr %this1, i32 0, i32 5
  store i8 1, ptr %m_isEnabled, align 4
  %m_needsFeedback = getelementptr inbounds %class.b3TypedConstraint, ptr %this1, i32 0, i32 6
  store i8 0, ptr %m_needsFeedback, align 1
  %m_overrideNumSolverIterations = getelementptr inbounds %class.b3TypedConstraint, ptr %this1, i32 0, i32 7
  store i32 -1, ptr %m_overrideNumSolverIterations, align 16
  %m_rbA = getelementptr inbounds %class.b3TypedConstraint, ptr %this1, i32 0, i32 8
  %3 = load i32, ptr %rbA.addr, align 4
  store i32 %3, ptr %m_rbA, align 4
  %m_rbB = getelementptr inbounds %class.b3TypedConstraint, ptr %this1, i32 0, i32 9
  %4 = load i32, ptr %rbB.addr, align 4
  store i32 %4, ptr %m_rbB, align 8
  %m_appliedImpulse = getelementptr inbounds %class.b3TypedConstraint, ptr %this1, i32 0, i32 10
  store float 0.000000e+00, ptr %m_appliedImpulse, align 4
  %m_dbgDrawSize = getelementptr inbounds %class.b3TypedConstraint, ptr %this1, i32 0, i32 11
  store float 0x3FD3333340000000, ptr %m_dbgDrawSize, align 16
  %m_jointFeedback = getelementptr inbounds %class.b3TypedConstraint, ptr %this1, i32 0, i32 12
  store ptr null, ptr %m_jointFeedback, align 8
  ret void
}